target datalayout = "e-m:e-p270:32:32-p271:32:32-p272:64:64-i64:64-i128:128-f80:128-n8:16:32:64-S128"
target triple = "x86_64-pc-linux-gnu"

%struct.png_row_info_struct = type { i32, i64, i8, i8, i8, i8 }

; Function Attrs: nounwind uwtable
define internal <2 x i64> @load3(ptr noundef %0) #0 {
  %2 = alloca i32, align 4
  %3 = alloca <4 x i32>, align 16
  %4 = alloca ptr, align 8
  %5 = alloca i32, align 4
  store ptr %0, ptr %4, align 8
  store i32 0, ptr %5, align 4
  %6 = load ptr, ptr %4, align 8
  call void @llvm.memcpy.p0.p0.i64(ptr align 4 %5, ptr align 1 %6, i64 3, i1 false)
  %7 = load i32, ptr %5, align 4
  store i32 %7, ptr %2, align 4
  %8 = load i32, ptr %2, align 4
  %9 = insertelement <4 x i32> poison, i32 %8, i32 0
  %10 = insertelement <4 x i32> %9, i32 0, i32 1
  %11 = insertelement <4 x i32> %10, i32 0, i32 2
  %12 = insertelement <4 x i32> %11, i32 0, i32 3
  store <4 x i32> %12, ptr %3, align 16
  %13 = load <4 x i32>, ptr %3, align 16
  %14 = bitcast <4 x i32> %13 to <2 x i64>
  ret <2 x i64> %14
}

; Function Attrs: nounwind uwtable
define internal void @store3(ptr noundef %0, <2 x i64> noundef %1) #0 {
  %3 = alloca <2 x i64>, align 16
  %4 = alloca <4 x i32>, align 16
  %5 = alloca ptr, align 8
  %6 = alloca <2 x i64>, align 16
  %7 = alloca i32, align 4
  store ptr %0, ptr %5, align 8
  store <2 x i64> %1, ptr %6, align 16
  %8 = load <2 x i64>, ptr %6, align 16
  store <2 x i64> %8, ptr %3, align 16
  %9 = load <2 x i64>, ptr %3, align 16
  %10 = bitcast <2 x i64> %9 to <4 x i32>
  store <4 x i32> %10, ptr %4, align 16
  %11 = load <4 x i32>, ptr %4, align 16
  %12 = extractelement <4 x i32> %11, i32 0
  store i32 %12, ptr %7, align 4
  %13 = load ptr, ptr %5, align 8
  call void @llvm.memcpy.p0.p0.i64(ptr align 1 %13, ptr align 4 %7, i64 3, i1 false)
  ret void
}

; Function Attrs: nounwind uwtable
define internal <2 x i64> @load4(ptr noundef %0) #0 {
  %2 = alloca i32, align 4
  %3 = alloca <4 x i32>, align 16
  %4 = alloca ptr, align 8
  %5 = alloca i32, align 4
  store ptr %0, ptr %4, align 8
  %6 = load ptr, ptr %4, align 8
  call void @llvm.memcpy.p0.p0.i64(ptr align 4 %5, ptr align 1 %6, i64 4, i1 false)
  %7 = load i32, ptr %5, align 4
  store i32 %7, ptr %2, align 4
  %8 = load i32, ptr %2, align 4
  %9 = insertelement <4 x i32> poison, i32 %8, i32 0
  %10 = insertelement <4 x i32> %9, i32 0, i32 1
  %11 = insertelement <4 x i32> %10, i32 0, i32 2
  %12 = insertelement <4 x i32> %11, i32 0, i32 3
  store <4 x i32> %12, ptr %3, align 16
  %13 = load <4 x i32>, ptr %3, align 16
  %14 = bitcast <4 x i32> %13 to <2 x i64>
  ret <2 x i64> %14
}

; Function Attrs: nounwind uwtable
define void @png_read_filter_row_avg3_sse2(ptr noundef %0, ptr noundef %1, ptr noundef %2) #0 {
  %4 = alloca i8, align 1
  %5 = alloca i8, align 1
  %6 = alloca i8, align 1
  %7 = alloca i8, align 1
  %8 = alloca i8, align 1
  %9 = alloca i8, align 1
  %10 = alloca i8, align 1
  %11 = alloca i8, align 1
  %12 = alloca i8, align 1
  %13 = alloca i8, align 1
  %14 = alloca i8, align 1
  %15 = alloca i8, align 1
  %16 = alloca i8, align 1
  %17 = alloca i8, align 1
  %18 = alloca i8, align 1
  %19 = alloca i8, align 1
  %20 = alloca <16 x i8>, align 16
  %21 = alloca i8, align 1
  %22 = alloca i8, align 1
  %23 = alloca i8, align 1
  %24 = alloca i8, align 1
  %25 = alloca i8, align 1
  %26 = alloca i8, align 1
  %27 = alloca i8, align 1
  %28 = alloca i8, align 1
  %29 = alloca i8, align 1
  %30 = alloca i8, align 1
  %31 = alloca i8, align 1
  %32 = alloca i8, align 1
  %33 = alloca i8, align 1
  %34 = alloca i8, align 1
  %35 = alloca i8, align 1
  %36 = alloca i8, align 1
  %37 = alloca <16 x i8>, align 16
  %38 = alloca i8, align 1
  %39 = alloca i8, align 1
  %40 = alloca <2 x i64>, align 16
  %41 = alloca <2 x i64>, align 16
  %42 = alloca <2 x i64>, align 16
  %43 = alloca <2 x i64>, align 16
  %44 = alloca <2 x i64>, align 16
  %45 = alloca <2 x i64>, align 16
  %46 = alloca <2 x i64>, align 16
  %47 = alloca <2 x i64>, align 16
  %48 = alloca <2 x i64>, align 16
  %49 = alloca <2 x i64>, align 16
  %50 = alloca <2 x i64>, align 16
  %51 = alloca <2 x i64>, align 16
  %52 = alloca <2 x i64>, align 16
  %53 = alloca <2 x i64>, align 16
  %54 = alloca <2 x i64>, align 16
  %55 = alloca <2 x i64>, align 16
  %56 = alloca <2 x i64>, align 16
  %57 = alloca <2 x i64>, align 16
  %58 = alloca <2 x i64>, align 16
  %59 = alloca <2 x i64>, align 16
  %60 = alloca <2 x i64>, align 16
  %61 = alloca ptr, align 8
  %62 = alloca ptr, align 8
  %63 = alloca ptr, align 8
  %64 = alloca i64, align 8
  %65 = alloca <2 x i64>, align 16
  %66 = alloca <2 x i64>, align 16
  %67 = alloca <2 x i64>, align 16
  %68 = alloca <2 x i64>, align 16
  %69 = alloca <2 x i64>, align 16
  %70 = alloca <2 x i64>, align 16
  store ptr %0, ptr %61, align 8
  store ptr %1, ptr %62, align 8
  store ptr %2, ptr %63, align 8
  store <2 x i64> zeroinitializer, ptr %60, align 16
  %71 = load <2 x i64>, ptr %60, align 16
  store <2 x i64> %71, ptr %65, align 16
  %72 = load <2 x i64>, ptr %65, align 16
  store <2 x i64> %72, ptr %68, align 16
  %73 = load ptr, ptr %61, align 8
  %74 = getelementptr inbounds %struct.png_row_info_struct, ptr %73, i32 0, i32 1
  %75 = load i64, ptr %74, align 8
  store i64 %75, ptr %64, align 8
  br label %76

76:                                               ; preds = %79, %3
  %77 = load i64, ptr %64, align 8
  %78 = icmp uge i64 %77, 4
  br i1 %78, label %79, label %174

79:                                               ; preds = %76
  %80 = load ptr, ptr %63, align 8
  %81 = call <2 x i64> @load4(ptr noundef %80)
  store <2 x i64> %81, ptr %66, align 16
  %82 = load <2 x i64>, ptr %68, align 16
  store <2 x i64> %82, ptr %67, align 16
  %83 = load ptr, ptr %62, align 8
  %84 = call <2 x i64> @load4(ptr noundef %83)
  store <2 x i64> %84, ptr %68, align 16
  %85 = load <2 x i64>, ptr %67, align 16
  %86 = load <2 x i64>, ptr %66, align 16
  store <2 x i64> %85, ptr %52, align 16
  store <2 x i64> %86, ptr %53, align 16
  %87 = load <2 x i64>, ptr %52, align 16
  %88 = bitcast <2 x i64> %87 to <16 x i8>
  %89 = load <2 x i64>, ptr %53, align 16
  %90 = bitcast <2 x i64> %89 to <16 x i8>
  %91 = call <16 x i8> @llvm.x86.sse2.pavg.b(<16 x i8> %88, <16 x i8> %90)
  %92 = bitcast <16 x i8> %91 to <2 x i64>
  store <2 x i64> %92, ptr %69, align 16
  %93 = load <2 x i64>, ptr %69, align 16
  %94 = load <2 x i64>, ptr %67, align 16
  %95 = load <2 x i64>, ptr %66, align 16
  store <2 x i64> %94, ptr %40, align 16
  store <2 x i64> %95, ptr %41, align 16
  %96 = load <2 x i64>, ptr %40, align 16
  %97 = load <2 x i64>, ptr %41, align 16
  %98 = xor <2 x i64> %96, %97
  store i8 1, ptr %38, align 1
  %99 = load i8, ptr %38, align 1
  %100 = load i8, ptr %38, align 1
  %101 = load i8, ptr %38, align 1
  %102 = load i8, ptr %38, align 1
  %103 = load i8, ptr %38, align 1
  %104 = load i8, ptr %38, align 1
  %105 = load i8, ptr %38, align 1
  %106 = load i8, ptr %38, align 1
  %107 = load i8, ptr %38, align 1
  %108 = load i8, ptr %38, align 1
  %109 = load i8, ptr %38, align 1
  %110 = load i8, ptr %38, align 1
  %111 = load i8, ptr %38, align 1
  %112 = load i8, ptr %38, align 1
  %113 = load i8, ptr %38, align 1
  %114 = load i8, ptr %38, align 1
  store i8 %99, ptr %21, align 1
  store i8 %100, ptr %22, align 1
  store i8 %101, ptr %23, align 1
  store i8 %102, ptr %24, align 1
  store i8 %103, ptr %25, align 1
  store i8 %104, ptr %26, align 1
  store i8 %105, ptr %27, align 1
  store i8 %106, ptr %28, align 1
  store i8 %107, ptr %29, align 1
  store i8 %108, ptr %30, align 1
  store i8 %109, ptr %31, align 1
  store i8 %110, ptr %32, align 1
  store i8 %111, ptr %33, align 1
  store i8 %112, ptr %34, align 1
  store i8 %113, ptr %35, align 1
  store i8 %114, ptr %36, align 1
  %115 = load i8, ptr %36, align 1
  %116 = insertelement <16 x i8> poison, i8 %115, i32 0
  %117 = load i8, ptr %35, align 1
  %118 = insertelement <16 x i8> %116, i8 %117, i32 1
  %119 = load i8, ptr %34, align 1
  %120 = insertelement <16 x i8> %118, i8 %119, i32 2
  %121 = load i8, ptr %33, align 1
  %122 = insertelement <16 x i8> %120, i8 %121, i32 3
  %123 = load i8, ptr %32, align 1
  %124 = insertelement <16 x i8> %122, i8 %123, i32 4
  %125 = load i8, ptr %31, align 1
  %126 = insertelement <16 x i8> %124, i8 %125, i32 5
  %127 = load i8, ptr %30, align 1
  %128 = insertelement <16 x i8> %126, i8 %127, i32 6
  %129 = load i8, ptr %29, align 1
  %130 = insertelement <16 x i8> %128, i8 %129, i32 7
  %131 = load i8, ptr %28, align 1
  %132 = insertelement <16 x i8> %130, i8 %131, i32 8
  %133 = load i8, ptr %27, align 1
  %134 = insertelement <16 x i8> %132, i8 %133, i32 9
  %135 = load i8, ptr %26, align 1
  %136 = insertelement <16 x i8> %134, i8 %135, i32 10
  %137 = load i8, ptr %25, align 1
  %138 = insertelement <16 x i8> %136, i8 %137, i32 11
  %139 = load i8, ptr %24, align 1
  %140 = insertelement <16 x i8> %138, i8 %139, i32 12
  %141 = load i8, ptr %23, align 1
  %142 = insertelement <16 x i8> %140, i8 %141, i32 13
  %143 = load i8, ptr %22, align 1
  %144 = insertelement <16 x i8> %142, i8 %143, i32 14
  %145 = load i8, ptr %21, align 1
  %146 = insertelement <16 x i8> %144, i8 %145, i32 15
  store <16 x i8> %146, ptr %37, align 16
  %147 = load <16 x i8>, ptr %37, align 16
  %148 = bitcast <16 x i8> %147 to <2 x i64>
  store <2 x i64> %98, ptr %44, align 16
  store <2 x i64> %148, ptr %45, align 16
  %149 = load <2 x i64>, ptr %44, align 16
  %150 = load <2 x i64>, ptr %45, align 16
  %151 = and <2 x i64> %149, %150
  store <2 x i64> %93, ptr %48, align 16
  store <2 x i64> %151, ptr %49, align 16
  %152 = load <2 x i64>, ptr %48, align 16
  %153 = bitcast <2 x i64> %152 to <16 x i8>
  %154 = load <2 x i64>, ptr %49, align 16
  %155 = bitcast <2 x i64> %154 to <16 x i8>
  %156 = sub <16 x i8> %153, %155
  %157 = bitcast <16 x i8> %156 to <2 x i64>
  store <2 x i64> %157, ptr %69, align 16
  %158 = load <2 x i64>, ptr %68, align 16
  %159 = load <2 x i64>, ptr %69, align 16
  store <2 x i64> %158, ptr %56, align 16
  store <2 x i64> %159, ptr %57, align 16
  %160 = load <2 x i64>, ptr %56, align 16
  %161 = bitcast <2 x i64> %160 to <16 x i8>
  %162 = load <2 x i64>, ptr %57, align 16
  %163 = bitcast <2 x i64> %162 to <16 x i8>
  %164 = add <16 x i8> %161, %163
  %165 = bitcast <16 x i8> %164 to <2 x i64>
  store <2 x i64> %165, ptr %68, align 16
  %166 = load ptr, ptr %62, align 8
  %167 = load <2 x i64>, ptr %68, align 16
  call void @store3(ptr noundef %166, <2 x i64> noundef %167)
  %168 = load ptr, ptr %63, align 8
  %169 = getelementptr inbounds i8, ptr %168, i64 3
  store ptr %169, ptr %63, align 8
  %170 = load ptr, ptr %62, align 8
  %171 = getelementptr inbounds i8, ptr %170, i64 3
  store ptr %171, ptr %62, align 8
  %172 = load i64, ptr %64, align 8
  %173 = sub i64 %172, 3
  store i64 %173, ptr %64, align 8
  br label %76, !llvm.loop !7

174:                                              ; preds = %76
  %175 = load i64, ptr %64, align 8
  %176 = icmp ugt i64 %175, 0
  br i1 %176, label %177, label %272

177:                                              ; preds = %174
  %178 = load ptr, ptr %63, align 8
  %179 = call <2 x i64> @load3(ptr noundef %178)
  store <2 x i64> %179, ptr %66, align 16
  %180 = load <2 x i64>, ptr %68, align 16
  store <2 x i64> %180, ptr %67, align 16
  %181 = load ptr, ptr %62, align 8
  %182 = call <2 x i64> @load3(ptr noundef %181)
  store <2 x i64> %182, ptr %68, align 16
  %183 = load <2 x i64>, ptr %67, align 16
  %184 = load <2 x i64>, ptr %66, align 16
  store <2 x i64> %183, ptr %54, align 16
  store <2 x i64> %184, ptr %55, align 16
  %185 = load <2 x i64>, ptr %54, align 16
  %186 = bitcast <2 x i64> %185 to <16 x i8>
  %187 = load <2 x i64>, ptr %55, align 16
  %188 = bitcast <2 x i64> %187 to <16 x i8>
  %189 = call <16 x i8> @llvm.x86.sse2.pavg.b(<16 x i8> %186, <16 x i8> %188)
  %190 = bitcast <16 x i8> %189 to <2 x i64>
  store <2 x i64> %190, ptr %70, align 16
  %191 = load <2 x i64>, ptr %70, align 16
  %192 = load <2 x i64>, ptr %67, align 16
  %193 = load <2 x i64>, ptr %66, align 16
  store <2 x i64> %192, ptr %42, align 16
  store <2 x i64> %193, ptr %43, align 16
  %194 = load <2 x i64>, ptr %42, align 16
  %195 = load <2 x i64>, ptr %43, align 16
  %196 = xor <2 x i64> %194, %195
  store i8 1, ptr %39, align 1
  %197 = load i8, ptr %39, align 1
  %198 = load i8, ptr %39, align 1
  %199 = load i8, ptr %39, align 1
  %200 = load i8, ptr %39, align 1
  %201 = load i8, ptr %39, align 1
  %202 = load i8, ptr %39, align 1
  %203 = load i8, ptr %39, align 1
  %204 = load i8, ptr %39, align 1
  %205 = load i8, ptr %39, align 1
  %206 = load i8, ptr %39, align 1
  %207 = load i8, ptr %39, align 1
  %208 = load i8, ptr %39, align 1
  %209 = load i8, ptr %39, align 1
  %210 = load i8, ptr %39, align 1
  %211 = load i8, ptr %39, align 1
  %212 = load i8, ptr %39, align 1
  store i8 %197, ptr %4, align 1
  store i8 %198, ptr %5, align 1
  store i8 %199, ptr %6, align 1
  store i8 %200, ptr %7, align 1
  store i8 %201, ptr %8, align 1
  store i8 %202, ptr %9, align 1
  store i8 %203, ptr %10, align 1
  store i8 %204, ptr %11, align 1
  store i8 %205, ptr %12, align 1
  store i8 %206, ptr %13, align 1
  store i8 %207, ptr %14, align 1
  store i8 %208, ptr %15, align 1
  store i8 %209, ptr %16, align 1
  store i8 %210, ptr %17, align 1
  store i8 %211, ptr %18, align 1
  store i8 %212, ptr %19, align 1
  %213 = load i8, ptr %19, align 1
  %214 = insertelement <16 x i8> poison, i8 %213, i32 0
  %215 = load i8, ptr %18, align 1
  %216 = insertelement <16 x i8> %214, i8 %215, i32 1
  %217 = load i8, ptr %17, align 1
  %218 = insertelement <16 x i8> %216, i8 %217, i32 2
  %219 = load i8, ptr %16, align 1
  %220 = insertelement <16 x i8> %218, i8 %219, i32 3
  %221 = load i8, ptr %15, align 1
  %222 = insertelement <16 x i8> %220, i8 %221, i32 4
  %223 = load i8, ptr %14, align 1
  %224 = insertelement <16 x i8> %222, i8 %223, i32 5
  %225 = load i8, ptr %13, align 1
  %226 = insertelement <16 x i8> %224, i8 %225, i32 6
  %227 = load i8, ptr %12, align 1
  %228 = insertelement <16 x i8> %226, i8 %227, i32 7
  %229 = load i8, ptr %11, align 1
  %230 = insertelement <16 x i8> %228, i8 %229, i32 8
  %231 = load i8, ptr %10, align 1
  %232 = insertelement <16 x i8> %230, i8 %231, i32 9
  %233 = load i8, ptr %9, align 1
  %234 = insertelement <16 x i8> %232, i8 %233, i32 10
  %235 = load i8, ptr %8, align 1
  %236 = insertelement <16 x i8> %234, i8 %235, i32 11
  %237 = load i8, ptr %7, align 1
  %238 = insertelement <16 x i8> %236, i8 %237, i32 12
  %239 = load i8, ptr %6, align 1
  %240 = insertelement <16 x i8> %238, i8 %239, i32 13
  %241 = load i8, ptr %5, align 1
  %242 = insertelement <16 x i8> %240, i8 %241, i32 14
  %243 = load i8, ptr %4, align 1
  %244 = insertelement <16 x i8> %242, i8 %243, i32 15
  store <16 x i8> %244, ptr %20, align 16
  %245 = load <16 x i8>, ptr %20, align 16
  %246 = bitcast <16 x i8> %245 to <2 x i64>
  store <2 x i64> %196, ptr %46, align 16
  store <2 x i64> %246, ptr %47, align 16
  %247 = load <2 x i64>, ptr %46, align 16
  %248 = load <2 x i64>, ptr %47, align 16
  %249 = and <2 x i64> %247, %248
  store <2 x i64> %191, ptr %50, align 16
  store <2 x i64> %249, ptr %51, align 16
  %250 = load <2 x i64>, ptr %50, align 16
  %251 = bitcast <2 x i64> %250 to <16 x i8>
  %252 = load <2 x i64>, ptr %51, align 16
  %253 = bitcast <2 x i64> %252 to <16 x i8>
  %254 = sub <16 x i8> %251, %253
  %255 = bitcast <16 x i8> %254 to <2 x i64>
  store <2 x i64> %255, ptr %70, align 16
  %256 = load <2 x i64>, ptr %68, align 16
  %257 = load <2 x i64>, ptr %70, align 16
  store <2 x i64> %256, ptr %58, align 16
  store <2 x i64> %257, ptr %59, align 16
  %258 = load <2 x i64>, ptr %58, align 16
  %259 = bitcast <2 x i64> %258 to <16 x i8>
  %260 = load <2 x i64>, ptr %59, align 16
  %261 = bitcast <2 x i64> %260 to <16 x i8>
  %262 = add <16 x i8> %259, %261
  %263 = bitcast <16 x i8> %262 to <2 x i64>
  store <2 x i64> %263, ptr %68, align 16
  %264 = load ptr, ptr %62, align 8
  %265 = load <2 x i64>, ptr %68, align 16
  call void @store3(ptr noundef %264, <2 x i64> noundef %265)
  %266 = load ptr, ptr %63, align 8
  %267 = getelementptr inbounds i8, ptr %266, i64 3
  store ptr %267, ptr %63, align 8
  %268 = load ptr, ptr %62, align 8
  %269 = getelementptr inbounds i8, ptr %268, i64 3
  store ptr %269, ptr %62, align 8
  %270 = load i64, ptr %64, align 8
  %271 = sub i64 %270, 3
  store i64 %271, ptr %64, align 8
  br label %272

272:                                              ; preds = %177, %174
  ret void
}