; Function Attrs: nofree norecurse nosync nounwind memory(argmem: readwrite) uwtable
define void @png_read_filter_row_avg3_sse2(ptr noundef readonly captures(none) %0, ptr noundef captures(none) %1, ptr noundef readonly captures(none) %2) local_unnamed_addr #0 {
  %4 = getelementptr inbounds nuw i8, ptr %0, i64 8
  %5 = load i64, ptr %4, align 8
  %6 = icmp ugt i64 %5, 3
  br i1 %6, label %.lr.ph, label %._crit_edge

.lr.ph:                                           ; preds = %3, %.lr.ph
  %.0130 = phi ptr [ %23, %.lr.ph ], [ %1, %3 ]
  %.0120129 = phi ptr [ %22, %.lr.ph ], [ %2, %3 ]
  %.0121128 = phi <2 x i64> [ %19, %.lr.ph ], [ zeroinitializer, %3 ]
  %.0122127 = phi i64 [ %24, %.lr.ph ], [ %5, %3 ]
  %.0120.val = load i32, ptr %.0120129, align 1
  %7 = insertelement <4 x i32> <i32 poison, i32 0, i32 0, i32 0>, i32 %.0120.val, i64 0
  %8 = bitcast <4 x i32> %7 to <2 x i64>
  %.0.val = load i32, ptr %.0130, align 1
  %9 = insertelement <4 x i32> <i32 poison, i32 0, i32 0, i32 0>, i32 %.0.val, i64 0
  %10 = bitcast <2 x i64> %.0121128 to <16 x i8>
  %11 = bitcast <4 x i32> %7 to <16 x i8>
  %12 = tail call <16 x i8> @llvm.x86.sse2.pavg.b(<16 x i8> %10, <16 x i8> %11)
  %13 = xor <2 x i64> %.0121128, %8
  %14 = bitcast <2 x i64> %13 to <16 x i8>
  %15 = and <16 x i8> %14, splat (i8 1)
  %16 = sub <16 x i8> %12, %15
  %17 = bitcast <4 x i32> %9 to <16 x i8>
  %18 = add <16 x i8> %16, %17
  %19 = bitcast <16 x i8> %18 to <2 x i64>
  %20 = bitcast <16 x i8> %18 to <4 x i32>
  %21 = extractelement <4 x i32> %20, i64 0
  %.0.extract.trunc.i = trunc i32 %21 to i24
  store i24 %.0.extract.trunc.i, ptr %.0130, align 1
  %22 = getelementptr inbounds nuw i8, ptr %.0120129, i64 3
  %23 = getelementptr inbounds nuw i8, ptr %.0130, i64 3
  %24 = add i64 %.0122127, -3
  %25 = icmp ugt i64 %24, 3
  br i1 %25, label %.lr.ph, label %._crit_edge.thread, !llvm.loop !7

._crit_edge:                                      ; preds = %3
  %.not = icmp eq i64 %5, 0
  br i1 %.not, label %40, label %._crit_edge.thread

._crit_edge.thread:                               ; preds = %.lr.ph, %._crit_edge
  %.0.lcssa144 = phi ptr [ %1, %._crit_edge ], [ %23, %.lr.ph ]
  %.0120.lcssa143 = phi ptr [ %2, %._crit_edge ], [ %22, %.lr.ph ]
  %.0121.lcssa142 = phi <2 x i64> [ zeroinitializer, %._crit_edge ], [ %19, %.lr.ph ]
  %.0120.val124 = load i24, ptr %.0120.lcssa143, align 1
  %.0.insert.ext.i = zext i24 %.0120.val124 to i32
  %26 = insertelement <4 x i32> <i32 poison, i32 0, i32 0, i32 0>, i32 %.0.insert.ext.i, i64 0
  %27 = bitcast <4 x i32> %26 to <2 x i64>
  %.0.val123 = load i24, ptr %.0.lcssa144, align 1
  %.0.insert.ext.i125 = zext i24 %.0.val123 to i32
  %28 = insertelement <4 x i32> poison, i32 %.0.insert.ext.i125, i64 0
  %29 = bitcast <2 x i64> %.0121.lcssa142 to <16 x i8>
  %30 = bitcast <4 x i32> %26 to <16 x i8>
  %31 = tail call <16 x i8> @llvm.x86.sse2.pavg.b(<16 x i8> %29, <16 x i8> %30)
  %32 = xor <2 x i64> %.0121.lcssa142, %27
  %33 = bitcast <2 x i64> %32 to <16 x i8>
  %34 = and <16 x i8> %33, <i8 1, i8 1, i8 1, i8 1, i8 poison, i8 poison, i8 poison, i8 poison, i8 poison, i8 poison, i8 poison, i8 poison, i8 poison, i8 poison, i8 poison, i8 poison>
  %35 = bitcast <4 x i32> %28 to <16 x i8>
  %36 = add <16 x i8> %31, %35
  %37 = sub <16 x i8> %36, %34
  %38 = bitcast <16 x i8> %37 to <4 x i32>
  %39 = extractelement <4 x i32> %38, i64 0
  %.0.extract.trunc.i126 = trunc i32 %39 to i24
  store i24 %.0.extract.trunc.i126, ptr %.0.lcssa144, align 1
  br label %40

40:                                               ; preds = %._crit_edge.thread, %._crit_edge
  ret void
}